; Function Attrs: nounwind uwtable
define range(i32 0, 2) i32 @ossl_quic_wire_peek_frame_header(ptr noundef readonly captures(none) %0, ptr noundef writeonly captures(none) %1, ptr noundef writeonly captures(address_is_null) %2) local_unnamed_addr #2 {
  %4 = getelementptr i8, ptr %0, i64 8
  %.val.i = load i64, ptr %4, align 8, !tbaa !52
  %5 = icmp eq i64 %.val.i, 0
  br i1 %5, label %PACKET_peek_quic_vlint_ex.exit, label %6

6:                                                ; preds = %3
  %7 = load ptr, ptr %0, align 8, !tbaa !54
  %8 = load i8, ptr %7, align 1, !tbaa !55
  %9 = lshr i8 %8, 6
  %10 = zext nneg i8 %9 to i32
  %11 = shl nuw nsw i32 1, %10
  %12 = zext nneg i32 %11 to i64
  %13 = icmp ult i64 %.val.i, %12
  br i1 %13, label %PACKET_peek_quic_vlint_ex.exit, label %14

14:                                               ; preds = %6
  %15 = tail call i64 @ossl_quic_vlint_decode_unchecked(ptr noundef nonnull %7) #12
  store i64 %15, ptr %1, align 8, !tbaa !56
  %.not.i = icmp eq ptr %2, null
  br i1 %.not.i, label %PACKET_peek_quic_vlint_ex.exit, label %16

16:                                               ; preds = %14
  %17 = icmp ult i64 %15, 64
  br i1 %17, label %ossl_quic_vlint_encode_len.exit.i, label %18

18:                                               ; preds = %16
  %19 = icmp ult i64 %15, 16384
  br i1 %19, label %ossl_quic_vlint_encode_len.exit.i, label %20

20:                                               ; preds = %18
  %21 = icmp ult i64 %15, 1073741824
  br i1 %21, label %ossl_quic_vlint_encode_len.exit.i, label %22

22:                                               ; preds = %20
  %23 = icmp ult i64 %15, 4611686018427387904
  %..i.i = select i1 %23, i64 8, i64 0
  br label %ossl_quic_vlint_encode_len.exit.i

ossl_quic_vlint_encode_len.exit.i:                ; preds = %22, %20, %18, %16
  %.0.i.i = phi i64 [ 1, %16 ], [ 2, %18 ], [ 4, %20 ], [ %..i.i, %22 ]
  %24 = icmp eq i64 %.0.i.i, %12
  %25 = zext i1 %24 to i32
  store i32 %25, ptr %2, align 4, !tbaa !57
  br label %PACKET_peek_quic_vlint_ex.exit

PACKET_peek_quic_vlint_ex.exit:                   ; preds = %3, %6, %14, %ossl_quic_vlint_encode_len.exit.i
  %.0.i = phi i32 [ 0, %3 ], [ 0, %6 ], [ 1, %ossl_quic_vlint_encode_len.exit.i ], [ 1, %14 ]
  ret i32 %.0.i
}